target datalayout = "e-m:e-p270:32:32-p271:32:32-p272:64:64-i64:64-i128:128-f80:128-n8:16:32:64-S128"
target triple = "x86_64-pc-linux-gnu"

; Function Attrs: nounwind uwtable
define hidden i32 @mbedtls_x509_crl_parse_file(ptr noundef %0, ptr noundef %1) #0 {
  %3 = alloca i32, align 4
  %4 = alloca ptr, align 8
  %5 = alloca ptr, align 8
  %6 = alloca i32, align 4
  %7 = alloca i64, align 8
  %8 = alloca ptr, align 8
  %9 = alloca i32, align 4
  store ptr %0, ptr %4, align 8, !tbaa !3
  store ptr %1, ptr %5, align 8, !tbaa !8
  call void @llvm.lifetime.start.p0(i64 4, ptr %6) #9
  store i32 -110, ptr %6, align 4, !tbaa !12
  call void @llvm.lifetime.start.p0(i64 8, ptr %7) #9
  call void @llvm.lifetime.start.p0(i64 8, ptr %8) #9
  %10 = load ptr, ptr %5, align 8, !tbaa !8
  %11 = call i32 @mbedtls_pk_load_file(ptr noundef %10, ptr noundef %8, ptr noundef %7)
  store i32 %11, ptr %6, align 4, !tbaa !12
  %12 = icmp ne i32 %11, 0
  br i1 %12, label %13, label %15

13:                                               ; preds = %2
  %14 = load i32, ptr %6, align 4, !tbaa !12
  store i32 %14, ptr %3, align 4
  store i32 1, ptr %9, align 4
  br label %23

15:                                               ; preds = %2
  %16 = load ptr, ptr %4, align 8, !tbaa !3
  %17 = load ptr, ptr %8, align 8, !tbaa !8
  %18 = load i64, ptr %7, align 8, !tbaa !10
  %19 = call i32 @mbedtls_x509_crl_parse(ptr noundef %16, ptr noundef %17, i64 noundef %18)
  store i32 %19, ptr %6, align 4, !tbaa !12
  %20 = load ptr, ptr %8, align 8, !tbaa !8
  %21 = load i64, ptr %7, align 8, !tbaa !10
  call void @mbedtls_zeroize_and_free(ptr noundef %20, i64 noundef %21)
  %22 = load i32, ptr %6, align 4, !tbaa !12
  store i32 %22, ptr %3, align 4
  store i32 1, ptr %9, align 4
  br label %23

23:                                               ; preds = %15, %13
  call void @llvm.lifetime.end.p0(i64 8, ptr %8) #9
  call void @llvm.lifetime.end.p0(i64 8, ptr %7) #9
  call void @llvm.lifetime.end.p0(i64 4, ptr %6) #9
  %24 = load i32, ptr %3, align 4
  ret i32 %24
}